target datalayout = "e-m:e-p270:32:32-p271:32:32-p272:64:64-i64:64-i128:128-f80:128-n8:16:32:64-S128"
target triple = "x86_64-pc-linux-gnu"

%struct.php_crypt_extended_data = type { i32, i32, i32, [16 x i32], [16 x i32], [16 x i32], [16 x i32], i32, i32, [21 x i8] }

@key_perm_maskl = internal global [8 x [128 x i32]] zeroinitializer, align 16
@key_perm_maskr = internal global [8 x [128 x i32]] zeroinitializer, align 16
@comp_maskl = internal global [8 x [128 x i32]] zeroinitializer, align 16
@comp_maskr = internal global [8 x [128 x i32]] zeroinitializer, align 16
@key_shifts = internal constant [16 x i8] c"\01\01\02\02\02\02\02\02\01\02\02\02\02\02\02\01", align 16

; Function Attrs: nounwind uwtable
define internal i32 @des_setkey(ptr noundef %0, ptr noundef %1) #0 {
  %3 = alloca i32, align 4
  %4 = alloca ptr, align 8
  %5 = alloca ptr, align 8
  %6 = alloca i32, align 4
  %7 = alloca i32, align 4
  %8 = alloca i32, align 4
  %9 = alloca i32, align 4
  %10 = alloca i32, align 4
  %11 = alloca i32, align 4
  %12 = alloca i32, align 4
  %13 = alloca i32, align 4
  store ptr %0, ptr %4, align 8
  store ptr %1, ptr %5, align 8
  %14 = load ptr, ptr %4, align 8
  %15 = getelementptr inbounds i8, ptr %14, i64 3
  %16 = load i8, ptr %15, align 1
  %17 = zext i8 %16 to i32
  %18 = load ptr, ptr %4, align 8
  %19 = getelementptr inbounds i8, ptr %18, i64 2
  %20 = load i8, ptr %19, align 1
  %21 = zext i8 %20 to i32
  %22 = shl i32 %21, 8
  %23 = or i32 %17, %22
  %24 = load ptr, ptr %4, align 8
  %25 = getelementptr inbounds i8, ptr %24, i64 1
  %26 = load i8, ptr %25, align 1
  %27 = zext i8 %26 to i32
  %28 = shl i32 %27, 16
  %29 = or i32 %23, %28
  %30 = load ptr, ptr %4, align 8
  %31 = getelementptr inbounds i8, ptr %30, i64 0
  %32 = load i8, ptr %31, align 1
  %33 = zext i8 %32 to i32
  %34 = shl i32 %33, 24
  %35 = or i32 %29, %34
  store i32 %35, ptr %8, align 4
  %36 = load ptr, ptr %4, align 8
  %37 = getelementptr inbounds i8, ptr %36, i64 7
  %38 = load i8, ptr %37, align 1
  %39 = zext i8 %38 to i32
  %40 = load ptr, ptr %4, align 8
  %41 = getelementptr inbounds i8, ptr %40, i64 6
  %42 = load i8, ptr %41, align 1
  %43 = zext i8 %42 to i32
  %44 = shl i32 %43, 8
  %45 = or i32 %39, %44
  %46 = load ptr, ptr %4, align 8
  %47 = getelementptr inbounds i8, ptr %46, i64 5
  %48 = load i8, ptr %47, align 1
  %49 = zext i8 %48 to i32
  %50 = shl i32 %49, 16
  %51 = or i32 %45, %50
  %52 = load ptr, ptr %4, align 8
  %53 = getelementptr inbounds i8, ptr %52, i64 4
  %54 = load i8, ptr %53, align 1
  %55 = zext i8 %54 to i32
  %56 = shl i32 %55, 24
  %57 = or i32 %51, %56
  store i32 %57, ptr %9, align 4
  %58 = load i32, ptr %8, align 4
  %59 = load i32, ptr %9, align 4
  %60 = or i32 %58, %59
  %61 = icmp ne i32 %60, 0
  br i1 %61, label %62, label %75

62:                                               ; preds = %2
  %63 = load i32, ptr %8, align 4
  %64 = load ptr, ptr %5, align 8
  %65 = getelementptr inbounds %struct.php_crypt_extended_data, ptr %64, i32 0, i32 7
  %66 = load i32, ptr %65, align 4
  %67 = icmp eq i32 %63, %66
  br i1 %67, label %68, label %75

68:                                               ; preds = %62
  %69 = load i32, ptr %9, align 4
  %70 = load ptr, ptr %5, align 8
  %71 = getelementptr inbounds %struct.php_crypt_extended_data, ptr %70, i32 0, i32 8
  %72 = load i32, ptr %71, align 4
  %73 = icmp eq i32 %69, %72
  br i1 %73, label %74, label %75

74:                                               ; preds = %68
  store i32 0, ptr %3, align 4
  br label %347

75:                                               ; preds = %68, %62, %2
  %76 = load i32, ptr %8, align 4
  %77 = load ptr, ptr %5, align 8
  %78 = getelementptr inbounds %struct.php_crypt_extended_data, ptr %77, i32 0, i32 7
  store i32 %76, ptr %78, align 4
  %79 = load i32, ptr %9, align 4
  %80 = load ptr, ptr %5, align 8
  %81 = getelementptr inbounds %struct.php_crypt_extended_data, ptr %80, i32 0, i32 8
  store i32 %79, ptr %81, align 4
  %82 = load i32, ptr %8, align 4
  %83 = lshr i32 %82, 25
  %84 = zext i32 %83 to i64
  %85 = getelementptr inbounds [128 x i32], ptr @key_perm_maskl, i64 0, i64 %84
  %86 = load i32, ptr %85, align 4
  %87 = load i32, ptr %8, align 4
  %88 = lshr i32 %87, 17
  %89 = and i32 %88, 127
  %90 = zext i32 %89 to i64
  %91 = getelementptr inbounds [128 x i32], ptr getelementptr inbounds ([8 x [128 x i32]], ptr @key_perm_maskl, i64 0, i64 1), i64 0, i64 %90
  %92 = load i32, ptr %91, align 4
  %93 = or i32 %86, %92
  %94 = load i32, ptr %8, align 4
  %95 = lshr i32 %94, 9
  %96 = and i32 %95, 127
  %97 = zext i32 %96 to i64
  %98 = getelementptr inbounds [128 x i32], ptr getelementptr inbounds ([8 x [128 x i32]], ptr @key_perm_maskl, i64 0, i64 2), i64 0, i64 %97
  %99 = load i32, ptr %98, align 4
  %100 = or i32 %93, %99
  %101 = load i32, ptr %8, align 4
  %102 = lshr i32 %101, 1
  %103 = and i32 %102, 127
  %104 = zext i32 %103 to i64
  %105 = getelementptr inbounds [128 x i32], ptr getelementptr inbounds ([8 x [128 x i32]], ptr @key_perm_maskl, i64 0, i64 3), i64 0, i64 %104
  %106 = load i32, ptr %105, align 4
  %107 = or i32 %100, %106
  %108 = load i32, ptr %9, align 4
  %109 = lshr i32 %108, 25
  %110 = zext i32 %109 to i64
  %111 = getelementptr inbounds [128 x i32], ptr getelementptr inbounds ([8 x [128 x i32]], ptr @key_perm_maskl, i64 0, i64 4), i64 0, i64 %110
  %112 = load i32, ptr %111, align 4
  %113 = or i32 %107, %112
  %114 = load i32, ptr %9, align 4
  %115 = lshr i32 %114, 17
  %116 = and i32 %115, 127
  %117 = zext i32 %116 to i64
  %118 = getelementptr inbounds [128 x i32], ptr getelementptr inbounds ([8 x [128 x i32]], ptr @key_perm_maskl, i64 0, i64 5), i64 0, i64 %117
  %119 = load i32, ptr %118, align 4
  %120 = or i32 %113, %119
  %121 = load i32, ptr %9, align 4
  %122 = lshr i32 %121, 9
  %123 = and i32 %122, 127
  %124 = zext i32 %123 to i64
  %125 = getelementptr inbounds [128 x i32], ptr getelementptr inbounds ([8 x [128 x i32]], ptr @key_perm_maskl, i64 0, i64 6), i64 0, i64 %124
  %126 = load i32, ptr %125, align 4
  %127 = or i32 %120, %126
  %128 = load i32, ptr %9, align 4
  %129 = lshr i32 %128, 1
  %130 = and i32 %129, 127
  %131 = zext i32 %130 to i64
  %132 = getelementptr inbounds [128 x i32], ptr getelementptr inbounds ([8 x [128 x i32]], ptr @key_perm_maskl, i64 0, i64 7), i64 0, i64 %131
  %133 = load i32, ptr %132, align 4
  %134 = or i32 %127, %133
  store i32 %134, ptr %6, align 4
  %135 = load i32, ptr %8, align 4
  %136 = lshr i32 %135, 25
  %137 = zext i32 %136 to i64
  %138 = getelementptr inbounds [128 x i32], ptr @key_perm_maskr, i64 0, i64 %137
  %139 = load i32, ptr %138, align 4
  %140 = load i32, ptr %8, align 4
  %141 = lshr i32 %140, 17
  %142 = and i32 %141, 127
  %143 = zext i32 %142 to i64
  %144 = getelementptr inbounds [128 x i32], ptr getelementptr inbounds ([8 x [128 x i32]], ptr @key_perm_maskr, i64 0, i64 1), i64 0, i64 %143
  %145 = load i32, ptr %144, align 4
  %146 = or i32 %139, %145
  %147 = load i32, ptr %8, align 4
  %148 = lshr i32 %147, 9
  %149 = and i32 %148, 127
  %150 = zext i32 %149 to i64
  %151 = getelementptr inbounds [128 x i32], ptr getelementptr inbounds ([8 x [128 x i32]], ptr @key_perm_maskr, i64 0, i64 2), i64 0, i64 %150
  %152 = load i32, ptr %151, align 4
  %153 = or i32 %146, %152
  %154 = load i32, ptr %8, align 4
  %155 = lshr i32 %154, 1
  %156 = and i32 %155, 127
  %157 = zext i32 %156 to i64
  %158 = getelementptr inbounds [128 x i32], ptr getelementptr inbounds ([8 x [128 x i32]], ptr @key_perm_maskr, i64 0, i64 3), i64 0, i64 %157
  %159 = load i32, ptr %158, align 4
  %160 = or i32 %153, %159
  %161 = load i32, ptr %9, align 4
  %162 = lshr i32 %161, 25
  %163 = zext i32 %162 to i64
  %164 = getelementptr inbounds [128 x i32], ptr getelementptr inbounds ([8 x [128 x i32]], ptr @key_perm_maskr, i64 0, i64 4), i64 0, i64 %163
  %165 = load i32, ptr %164, align 4
  %166 = or i32 %160, %165
  %167 = load i32, ptr %9, align 4
  %168 = lshr i32 %167, 17
  %169 = and i32 %168, 127
  %170 = zext i32 %169 to i64
  %171 = getelementptr inbounds [128 x i32], ptr getelementptr inbounds ([8 x [128 x i32]], ptr @key_perm_maskr, i64 0, i64 5), i64 0, i64 %170
  %172 = load i32, ptr %171, align 4
  %173 = or i32 %166, %172
  %174 = load i32, ptr %9, align 4
  %175 = lshr i32 %174, 9
  %176 = and i32 %175, 127
  %177 = zext i32 %176 to i64
  %178 = getelementptr inbounds [128 x i32], ptr getelementptr inbounds ([8 x [128 x i32]], ptr @key_perm_maskr, i64 0, i64 6), i64 0, i64 %177
  %179 = load i32, ptr %178, align 4
  %180 = or i32 %173, %179
  %181 = load i32, ptr %9, align 4
  %182 = lshr i32 %181, 1
  %183 = and i32 %182, 127
  %184 = zext i32 %183 to i64
  %185 = getelementptr inbounds [128 x i32], ptr getelementptr inbounds ([8 x [128 x i32]], ptr @key_perm_maskr, i64 0, i64 7), i64 0, i64 %184
  %186 = load i32, ptr %185, align 4
  %187 = or i32 %180, %186
  store i32 %187, ptr %7, align 4
  store i32 0, ptr %10, align 4
  store i32 0, ptr %11, align 4
  br label %188

188:                                              ; preds = %343, %75
  %189 = load i32, ptr %11, align 4
  %190 = icmp slt i32 %189, 16
  br i1 %190, label %191, label %346

191:                                              ; preds = %188
  %192 = load i32, ptr %11, align 4
  %193 = sext i32 %192 to i64
  %194 = getelementptr inbounds [16 x i8], ptr @key_shifts, i64 0, i64 %193
  %195 = load i8, ptr %194, align 1
  %196 = zext i8 %195 to i32
  %197 = load i32, ptr %10, align 4
  %198 = add nsw i32 %197, %196
  store i32 %198, ptr %10, align 4
  %199 = load i32, ptr %6, align 4
  %200 = load i32, ptr %10, align 4
  %201 = shl i32 %199, %200
  %202 = load i32, ptr %6, align 4
  %203 = load i32, ptr %10, align 4
  %204 = sub nsw i32 28, %203
  %205 = lshr i32 %202, %204
  %206 = or i32 %201, %205
  store i32 %206, ptr %12, align 4
  %207 = load i32, ptr %7, align 4
  %208 = load i32, ptr %10, align 4
  %209 = shl i32 %207, %208
  %210 = load i32, ptr %7, align 4
  %211 = load i32, ptr %10, align 4
  %212 = sub nsw i32 28, %211
  %213 = lshr i32 %210, %212
  %214 = or i32 %209, %213
  store i32 %214, ptr %13, align 4
  %215 = load i32, ptr %12, align 4
  %216 = lshr i32 %215, 21
  %217 = and i32 %216, 127
  %218 = zext i32 %217 to i64
  %219 = getelementptr inbounds [128 x i32], ptr @comp_maskl, i64 0, i64 %218
  %220 = load i32, ptr %219, align 4
  %221 = load i32, ptr %12, align 4
  %222 = lshr i32 %221, 14
  %223 = and i32 %222, 127
  %224 = zext i32 %223 to i64
  %225 = getelementptr inbounds [128 x i32], ptr getelementptr inbounds ([8 x [128 x i32]], ptr @comp_maskl, i64 0, i64 1), i64 0, i64 %224
  %226 = load i32, ptr %225, align 4
  %227 = or i32 %220, %226
  %228 = load i32, ptr %12, align 4
  %229 = lshr i32 %228, 7
  %230 = and i32 %229, 127
  %231 = zext i32 %230 to i64
  %232 = getelementptr inbounds [128 x i32], ptr getelementptr inbounds ([8 x [128 x i32]], ptr @comp_maskl, i64 0, i64 2), i64 0, i64 %231
  %233 = load i32, ptr %232, align 4
  %234 = or i32 %227, %233
  %235 = load i32, ptr %12, align 4
  %236 = and i32 %235, 127
  %237 = zext i32 %236 to i64
  %238 = getelementptr inbounds [128 x i32], ptr getelementptr inbounds ([8 x [128 x i32]], ptr @comp_maskl, i64 0, i64 3), i64 0, i64 %237
  %239 = load i32, ptr %238, align 4
  %240 = or i32 %234, %239
  %241 = load i32, ptr %13, align 4
  %242 = lshr i32 %241, 21
  %243 = and i32 %242, 127
  %244 = zext i32 %243 to i64
  %245 = getelementptr inbounds [128 x i32], ptr getelementptr inbounds ([8 x [128 x i32]], ptr @comp_maskl, i64 0, i64 4), i64 0, i64 %244
  %246 = load i32, ptr %245, align 4
  %247 = or i32 %240, %246
  %248 = load i32, ptr %13, align 4
  %249 = lshr i32 %248, 14
  %250 = and i32 %249, 127
  %251 = zext i32 %250 to i64
  %252 = getelementptr inbounds [128 x i32], ptr getelementptr inbounds ([8 x [128 x i32]], ptr @comp_maskl, i64 0, i64 5), i64 0, i64 %251
  %253 = load i32, ptr %252, align 4
  %254 = or i32 %247, %253
  %255 = load i32, ptr %13, align 4
  %256 = lshr i32 %255, 7
  %257 = and i32 %256, 127
  %258 = zext i32 %257 to i64
  %259 = getelementptr inbounds [128 x i32], ptr getelementptr inbounds ([8 x [128 x i32]], ptr @comp_maskl, i64 0, i64 6), i64 0, i64 %258
  %260 = load i32, ptr %259, align 4
  %261 = or i32 %254, %260
  %262 = load i32, ptr %13, align 4
  %263 = and i32 %262, 127
  %264 = zext i32 %263 to i64
  %265 = getelementptr inbounds [128 x i32], ptr getelementptr inbounds ([8 x [128 x i32]], ptr @comp_maskl, i64 0, i64 7), i64 0, i64 %264
  %266 = load i32, ptr %265, align 4
  %267 = or i32 %261, %266
  %268 = load ptr, ptr %5, align 8
  %269 = getelementptr inbounds %struct.php_crypt_extended_data, ptr %268, i32 0, i32 3
  %270 = load i32, ptr %11, align 4
  %271 = sext i32 %270 to i64
  %272 = getelementptr inbounds [16 x i32], ptr %269, i64 0, i64 %271
  store i32 %267, ptr %272, align 4
  %273 = load ptr, ptr %5, align 8
  %274 = getelementptr inbounds %struct.php_crypt_extended_data, ptr %273, i32 0, i32 5
  %275 = load i32, ptr %11, align 4
  %276 = sub nsw i32 15, %275
  %277 = sext i32 %276 to i64
  %278 = getelementptr inbounds [16 x i32], ptr %274, i64 0, i64 %277
  store i32 %267, ptr %278, align 4
  %279 = load i32, ptr %12, align 4
  %280 = lshr i32 %279, 21
  %281 = and i32 %280, 127
  %282 = zext i32 %281 to i64
  %283 = getelementptr inbounds [128 x i32], ptr @comp_maskr, i64 0, i64 %282
  %284 = load i32, ptr %283, align 4
  %285 = load i32, ptr %12, align 4
  %286 = lshr i32 %285, 14
  %287 = and i32 %286, 127
  %288 = zext i32 %287 to i64
  %289 = getelementptr inbounds [128 x i32], ptr getelementptr inbounds ([8 x [128 x i32]], ptr @comp_maskr, i64 0, i64 1), i64 0, i64 %288
  %290 = load i32, ptr %289, align 4
  %291 = or i32 %284, %290
  %292 = load i32, ptr %12, align 4
  %293 = lshr i32 %292, 7
  %294 = and i32 %293, 127
  %295 = zext i32 %294 to i64
  %296 = getelementptr inbounds [128 x i32], ptr getelementptr inbounds ([8 x [128 x i32]], ptr @comp_maskr, i64 0, i64 2), i64 0, i64 %295
  %297 = load i32, ptr %296, align 4
  %298 = or i32 %291, %297
  %299 = load i32, ptr %12, align 4
  %300 = and i32 %299, 127
  %301 = zext i32 %300 to i64
  %302 = getelementptr inbounds [128 x i32], ptr getelementptr inbounds ([8 x [128 x i32]], ptr @comp_maskr, i64 0, i64 3), i64 0, i64 %301
  %303 = load i32, ptr %302, align 4
  %304 = or i32 %298, %303
  %305 = load i32, ptr %13, align 4
  %306 = lshr i32 %305, 21
  %307 = and i32 %306, 127
  %308 = zext i32 %307 to i64
  %309 = getelementptr inbounds [128 x i32], ptr getelementptr inbounds ([8 x [128 x i32]], ptr @comp_maskr, i64 0, i64 4), i64 0, i64 %308
  %310 = load i32, ptr %309, align 4
  %311 = or i32 %304, %310
  %312 = load i32, ptr %13, align 4
  %313 = lshr i32 %312, 14
  %314 = and i32 %313, 127
  %315 = zext i32 %314 to i64
  %316 = getelementptr inbounds [128 x i32], ptr getelementptr inbounds ([8 x [128 x i32]], ptr @comp_maskr, i64 0, i64 5), i64 0, i64 %315
  %317 = load i32, ptr %316, align 4
  %318 = or i32 %311, %317
  %319 = load i32, ptr %13, align 4
  %320 = lshr i32 %319, 7
  %321 = and i32 %320, 127
  %322 = zext i32 %321 to i64
  %323 = getelementptr inbounds [128 x i32], ptr getelementptr inbounds ([8 x [128 x i32]], ptr @comp_maskr, i64 0, i64 6), i64 0, i64 %322
  %324 = load i32, ptr %323, align 4
  %325 = or i32 %318, %324
  %326 = load i32, ptr %13, align 4
  %327 = and i32 %326, 127
  %328 = zext i32 %327 to i64
  %329 = getelementptr inbounds [128 x i32], ptr getelementptr inbounds ([8 x [128 x i32]], ptr @comp_maskr, i64 0, i64 7), i64 0, i64 %328
  %330 = load i32, ptr %329, align 4
  %331 = or i32 %325, %330
  %332 = load ptr, ptr %5, align 8
  %333 = getelementptr inbounds %struct.php_crypt_extended_data, ptr %332, i32 0, i32 4
  %334 = load i32, ptr %11, align 4
  %335 = sext i32 %334 to i64
  %336 = getelementptr inbounds [16 x i32], ptr %333, i64 0, i64 %335
  store i32 %331, ptr %336, align 4
  %337 = load ptr, ptr %5, align 8
  %338 = getelementptr inbounds %struct.php_crypt_extended_data, ptr %337, i32 0, i32 6
  %339 = load i32, ptr %11, align 4
  %340 = sub nsw i32 15, %339
  %341 = sext i32 %340 to i64
  %342 = getelementptr inbounds [16 x i32], ptr %338, i64 0, i64 %341
  store i32 %331, ptr %342, align 4
  br label %343

343:                                              ; preds = %191
  %344 = load i32, ptr %11, align 4
  %345 = add nsw i32 %344, 1
  store i32 %345, ptr %11, align 4
  br label %188

346:                                              ; preds = %188
  store i32 0, ptr %3, align 4
  br label %347

347:                                              ; preds = %346, %74
  %348 = load i32, ptr %3, align 4
  ret i32 %348
}