; Function Attrs: nofree norecurse nosync nounwind memory(read, argmem: readwrite, inaccessiblemem: none) uwtable
define internal fastcc void @des_setkey(ptr nocapture noundef readonly %0, ptr nocapture noundef %1) unnamed_addr #2 {
  %3 = getelementptr inbounds i8, ptr %0, i64 3
  %4 = load i8, ptr %3, align 1
  %5 = zext i8 %4 to i32
  %6 = getelementptr inbounds i8, ptr %0, i64 2
  %7 = load i8, ptr %6, align 1
  %8 = zext i8 %7 to i32
  %9 = shl nuw nsw i32 %8, 8
  %10 = getelementptr inbounds i8, ptr %0, i64 1
  %11 = load i8, ptr %10, align 1
  %12 = zext i8 %11 to i32
  %13 = shl nuw nsw i32 %12, 16
  %14 = load i8, ptr %0, align 1
  %15 = zext i8 %14 to i32
  %16 = shl nuw i32 %15, 24
  %17 = or disjoint i32 %9, %13
  %18 = or disjoint i32 %17, %16
  %19 = or disjoint i32 %18, %5
  %20 = getelementptr inbounds i8, ptr %0, i64 7
  %21 = load i8, ptr %20, align 1
  %22 = zext i8 %21 to i32
  %23 = getelementptr inbounds i8, ptr %0, i64 6
  %24 = load i8, ptr %23, align 1
  %25 = zext i8 %24 to i32
  %26 = shl nuw nsw i32 %25, 8
  %27 = getelementptr inbounds i8, ptr %0, i64 5
  %28 = load i8, ptr %27, align 1
  %29 = zext i8 %28 to i32
  %30 = shl nuw nsw i32 %29, 16
  %31 = getelementptr inbounds i8, ptr %0, i64 4
  %32 = load i8, ptr %31, align 1
  %33 = zext i8 %32 to i32
  %34 = shl nuw i32 %33, 24
  %35 = or disjoint i32 %26, %30
  %36 = or disjoint i32 %35, %34
  %37 = or disjoint i32 %36, %22
  %38 = or i32 %37, %19
  %.not = icmp eq i32 %38, 0
  br i1 %.not, label %47, label %39

39:                                               ; preds = %2
  %40 = getelementptr inbounds i8, ptr %1, i64 268
  %41 = load i32, ptr %40, align 4
  %42 = icmp eq i32 %19, %41
  br i1 %42, label %43, label %47

43:                                               ; preds = %39
  %44 = getelementptr inbounds i8, ptr %1, i64 272
  %45 = load i32, ptr %44, align 4
  %46 = icmp eq i32 %37, %45
  br i1 %46, label %.loopexit, label %47

47:                                               ; preds = %43, %39, %2
  %48 = getelementptr inbounds i8, ptr %1, i64 268
  store i32 %19, ptr %48, align 4
  %49 = getelementptr inbounds i8, ptr %1, i64 272
  store i32 %37, ptr %49, align 4
  %50 = lshr i32 %15, 1
  %51 = zext nneg i32 %50 to i64
  %52 = getelementptr inbounds [128 x i32], ptr @key_perm_maskl, i64 0, i64 %51
  %53 = load i32, ptr %52, align 4
  %54 = lshr i32 %12, 1
  %55 = zext nneg i32 %54 to i64
  %56 = getelementptr inbounds [8 x [128 x i32]], ptr @key_perm_maskl, i64 0, i64 1, i64 %55
  %57 = load i32, ptr %56, align 4
  %58 = or i32 %57, %53
  %59 = lshr i32 %8, 1
  %60 = zext nneg i32 %59 to i64
  %61 = getelementptr inbounds [8 x [128 x i32]], ptr @key_perm_maskl, i64 0, i64 2, i64 %60
  %62 = load i32, ptr %61, align 4
  %63 = or i32 %58, %62
  %64 = lshr i32 %5, 1
  %65 = zext nneg i32 %64 to i64
  %66 = getelementptr inbounds [8 x [128 x i32]], ptr @key_perm_maskl, i64 0, i64 3, i64 %65
  %67 = load i32, ptr %66, align 4
  %68 = or i32 %63, %67
  %69 = lshr i32 %33, 1
  %70 = zext nneg i32 %69 to i64
  %71 = getelementptr inbounds [8 x [128 x i32]], ptr @key_perm_maskl, i64 0, i64 4, i64 %70
  %72 = load i32, ptr %71, align 4
  %73 = or i32 %68, %72
  %74 = lshr i32 %29, 1
  %75 = zext nneg i32 %74 to i64
  %76 = getelementptr inbounds [8 x [128 x i32]], ptr @key_perm_maskl, i64 0, i64 5, i64 %75
  %77 = load i32, ptr %76, align 4
  %78 = or i32 %73, %77
  %79 = lshr i32 %25, 1
  %80 = zext nneg i32 %79 to i64
  %81 = getelementptr inbounds [8 x [128 x i32]], ptr @key_perm_maskl, i64 0, i64 6, i64 %80
  %82 = load i32, ptr %81, align 4
  %83 = or i32 %78, %82
  %84 = lshr i32 %22, 1
  %85 = zext nneg i32 %84 to i64
  %86 = getelementptr inbounds [8 x [128 x i32]], ptr @key_perm_maskl, i64 0, i64 7, i64 %85
  %87 = load i32, ptr %86, align 4
  %88 = or i32 %83, %87
  %89 = getelementptr inbounds [128 x i32], ptr @key_perm_maskr, i64 0, i64 %51
  %90 = load i32, ptr %89, align 4
  %91 = getelementptr inbounds [8 x [128 x i32]], ptr @key_perm_maskr, i64 0, i64 1, i64 %55
  %92 = load i32, ptr %91, align 4
  %93 = or i32 %92, %90
  %94 = getelementptr inbounds [8 x [128 x i32]], ptr @key_perm_maskr, i64 0, i64 2, i64 %60
  %95 = load i32, ptr %94, align 4
  %96 = or i32 %93, %95
  %97 = getelementptr inbounds [8 x [128 x i32]], ptr @key_perm_maskr, i64 0, i64 3, i64 %65
  %98 = load i32, ptr %97, align 4
  %99 = or i32 %96, %98
  %100 = getelementptr inbounds [8 x [128 x i32]], ptr @key_perm_maskr, i64 0, i64 4, i64 %70
  %101 = load i32, ptr %100, align 4
  %102 = or i32 %99, %101
  %103 = getelementptr inbounds [8 x [128 x i32]], ptr @key_perm_maskr, i64 0, i64 5, i64 %75
  %104 = load i32, ptr %103, align 4
  %105 = or i32 %102, %104
  %106 = getelementptr inbounds [8 x [128 x i32]], ptr @key_perm_maskr, i64 0, i64 6, i64 %80
  %107 = load i32, ptr %106, align 4
  %108 = or i32 %105, %107
  %109 = getelementptr inbounds [8 x [128 x i32]], ptr @key_perm_maskr, i64 0, i64 7, i64 %85
  %110 = load i32, ptr %109, align 4
  %111 = or i32 %108, %110
  %112 = getelementptr inbounds i8, ptr %1, i64 12
  %113 = getelementptr inbounds i8, ptr %1, i64 140
  %114 = getelementptr inbounds i8, ptr %1, i64 76
  %115 = getelementptr inbounds i8, ptr %1, i64 204
  br label %116

116:                                              ; preds = %47, %116
  %indvars.iv = phi i64 [ 0, %47 ], [ %indvars.iv.next, %116 ]
  %.07073 = phi i32 [ 0, %47 ], [ %120, %116 ]
  %117 = getelementptr inbounds [16 x i8], ptr @key_shifts, i64 0, i64 %indvars.iv
  %118 = load i8, ptr %117, align 1
  %119 = zext i8 %118 to i32
  %120 = add nuw nsw i32 %.07073, %119
  %121 = shl i32 %88, %120
  %122 = sub nsw i32 28, %120
  %123 = lshr i32 %88, %122
  %124 = or i32 %123, %121
  %125 = shl i32 %111, %120
  %126 = lshr i32 %111, %122
  %127 = or i32 %126, %125
  %128 = lshr i32 %124, 21
  %129 = and i32 %128, 127
  %130 = zext nneg i32 %129 to i64
  %131 = getelementptr inbounds [128 x i32], ptr @comp_maskl, i64 0, i64 %130
  %132 = load i32, ptr %131, align 4
  %133 = lshr i32 %124, 14
  %134 = and i32 %133, 127
  %135 = zext nneg i32 %134 to i64
  %136 = getelementptr inbounds [8 x [128 x i32]], ptr @comp_maskl, i64 0, i64 1, i64 %135
  %137 = load i32, ptr %136, align 4
  %138 = or i32 %137, %132
  %139 = lshr i32 %124, 7
  %140 = and i32 %139, 127
  %141 = zext nneg i32 %140 to i64
  %142 = getelementptr inbounds [8 x [128 x i32]], ptr @comp_maskl, i64 0, i64 2, i64 %141
  %143 = load i32, ptr %142, align 4
  %144 = or i32 %138, %143
  %145 = and i32 %124, 127
  %146 = zext nneg i32 %145 to i64
  %147 = getelementptr inbounds [8 x [128 x i32]], ptr @comp_maskl, i64 0, i64 3, i64 %146
  %148 = load i32, ptr %147, align 4
  %149 = or i32 %144, %148
  %150 = lshr i32 %127, 21
  %151 = and i32 %150, 127
  %152 = zext nneg i32 %151 to i64
  %153 = getelementptr inbounds [8 x [128 x i32]], ptr @comp_maskl, i64 0, i64 4, i64 %152
  %154 = load i32, ptr %153, align 4
  %155 = or i32 %149, %154
  %156 = lshr i32 %127, 14
  %157 = and i32 %156, 127
  %158 = zext nneg i32 %157 to i64
  %159 = getelementptr inbounds [8 x [128 x i32]], ptr @comp_maskl, i64 0, i64 5, i64 %158
  %160 = load i32, ptr %159, align 4
  %161 = or i32 %155, %160
  %162 = lshr i32 %127, 7
  %163 = and i32 %162, 127
  %164 = zext nneg i32 %163 to i64
  %165 = getelementptr inbounds [8 x [128 x i32]], ptr @comp_maskl, i64 0, i64 6, i64 %164
  %166 = load i32, ptr %165, align 4
  %167 = or i32 %161, %166
  %168 = and i32 %127, 127
  %169 = zext nneg i32 %168 to i64
  %170 = getelementptr inbounds [8 x [128 x i32]], ptr @comp_maskl, i64 0, i64 7, i64 %169
  %171 = load i32, ptr %170, align 4
  %172 = or i32 %167, %171
  %173 = getelementptr inbounds [16 x i32], ptr %112, i64 0, i64 %indvars.iv
  store i32 %172, ptr %173, align 4
  %174 = and i64 %indvars.iv, 4294967295
  %175 = xor i64 %174, 15
  %176 = getelementptr inbounds [16 x i32], ptr %113, i64 0, i64 %175
  store i32 %172, ptr %176, align 4
  %177 = getelementptr inbounds [128 x i32], ptr @comp_maskr, i64 0, i64 %130
  %178 = load i32, ptr %177, align 4
  %179 = getelementptr inbounds [8 x [128 x i32]], ptr @comp_maskr, i64 0, i64 1, i64 %135
  %180 = load i32, ptr %179, align 4
  %181 = or i32 %180, %178
  %182 = getelementptr inbounds [8 x [128 x i32]], ptr @comp_maskr, i64 0, i64 2, i64 %141
  %183 = load i32, ptr %182, align 4
  %184 = or i32 %181, %183
  %185 = getelementptr inbounds [8 x [128 x i32]], ptr @comp_maskr, i64 0, i64 3, i64 %146
  %186 = load i32, ptr %185, align 4
  %187 = or i32 %184, %186
  %188 = getelementptr inbounds [8 x [128 x i32]], ptr @comp_maskr, i64 0, i64 4, i64 %152
  %189 = load i32, ptr %188, align 4
  %190 = or i32 %187, %189
  %191 = getelementptr inbounds [8 x [128 x i32]], ptr @comp_maskr, i64 0, i64 5, i64 %158
  %192 = load i32, ptr %191, align 4
  %193 = or i32 %190, %192
  %194 = getelementptr inbounds [8 x [128 x i32]], ptr @comp_maskr, i64 0, i64 6, i64 %164
  %195 = load i32, ptr %194, align 4
  %196 = or i32 %193, %195
  %197 = getelementptr inbounds [8 x [128 x i32]], ptr @comp_maskr, i64 0, i64 7, i64 %169
  %198 = load i32, ptr %197, align 4
  %199 = or i32 %196, %198
  %200 = getelementptr inbounds [16 x i32], ptr %114, i64 0, i64 %indvars.iv
  store i32 %199, ptr %200, align 4
  %201 = getelementptr inbounds [16 x i32], ptr %115, i64 0, i64 %175
  store i32 %199, ptr %201, align 4
  %indvars.iv.next = add nuw nsw i64 %indvars.iv, 1
  %exitcond.not = icmp eq i64 %indvars.iv.next, 16
  br i1 %exitcond.not, label %.loopexit, label %116

.loopexit:                                        ; preds = %116, %43
  ret void
}